target datalayout = "e-m:e-p270:32:32-p271:32:32-p272:64:64-i64:64-i128:128-f80:128-n8:16:32:64-S128"
target triple = "x86_64-pc-linux-gnu"

%struct.H5_obj_t = type { i64, i64 }
%struct.H5O_addr_map_t = type { %struct.H5_obj_t, i64, i8, i64, ptr, ptr }
%struct.H5O_obj_class_t = type { i32, ptr, ptr, ptr, ptr, ptr, ptr, ptr, ptr, ptr }

@H5_H5O_addr_map_t_reg_free_list = global { i8, [3 x i8], i32, i32, [4 x i8], ptr, i64, ptr } { i8 0, [3 x i8] zeroinitializer, i32 0, i32 0, [4 x i8] zeroinitializer, ptr @.str, i64 56, ptr null }, align 8
@H5O_init_g = external global i8, align 1
@H5_libterm_g = external global i8, align 1

; Function Attrs: nounwind uwtable
define internal i32 @H5O__copy_free_addrmap_cb(ptr noundef %0, ptr noundef %1, ptr noundef %2) #0 {
  %4 = alloca ptr, align 8
  %5 = alloca ptr, align 8
  %6 = alloca ptr, align 8
  %7 = alloca ptr, align 8
  store ptr %0, ptr %4, align 8, !tbaa !30
  store ptr %1, ptr %5, align 8, !tbaa !30
  store ptr %2, ptr %6, align 8, !tbaa !30
  call void @llvm.lifetime.start.p0(i64 8, ptr %7) #8
  %8 = load ptr, ptr %4, align 8, !tbaa !30
  store ptr %8, ptr %7, align 8, !tbaa !31
  %9 = load i8, ptr @H5O_init_g, align 1, !tbaa !12, !range !16, !noundef !17
  %10 = trunc i8 %9 to i1
  br i1 %10, label %15, label %11

11:                                               ; preds = %3
  %12 = load i8, ptr @H5_libterm_g, align 1, !tbaa !12, !range !16, !noundef !17
  %13 = trunc i8 %12 to i1
  %14 = xor i1 %13, true
  br label %15

15:                                               ; preds = %11, %3
  %16 = phi i1 [ true, %3 ], [ %14, %11 ]
  %17 = xor i1 %16, true
  %18 = xor i1 %17, true
  %19 = zext i1 %18 to i32
  %20 = sext i32 %19 to i64
  %21 = call i64 @llvm.expect.i64(i64 %20, i64 1)
  %22 = icmp ne i64 %21, 0
  br i1 %22, label %23, label %40

23:                                               ; preds = %15
  %24 = load ptr, ptr %7, align 8, !tbaa !31
  %25 = getelementptr inbounds nuw %struct.H5O_addr_map_t, ptr %24, i32 0, i32 5
  %26 = load ptr, ptr %25, align 8, !tbaa !48
  %27 = icmp ne ptr %26, null
  br i1 %27, label %28, label %37

28:                                               ; preds = %23
  %29 = load ptr, ptr %7, align 8, !tbaa !31
  %30 = getelementptr inbounds nuw %struct.H5O_addr_map_t, ptr %29, i32 0, i32 4
  %31 = load ptr, ptr %30, align 8, !tbaa !45
  %32 = getelementptr inbounds nuw %struct.H5O_obj_class_t, ptr %31, i32 0, i32 3
  %33 = load ptr, ptr %32, align 8, !tbaa !135
  %34 = load ptr, ptr %7, align 8, !tbaa !31
  %35 = getelementptr inbounds nuw %struct.H5O_addr_map_t, ptr %34, i32 0, i32 5
  %36 = load ptr, ptr %35, align 8, !tbaa !48
  call void %33(ptr noundef %36)
  br label %37

37:                                               ; preds = %28, %23
  %38 = load ptr, ptr %7, align 8, !tbaa !31
  %39 = call ptr @H5FL_reg_free(ptr noundef @H5_H5O_addr_map_t_reg_free_list, ptr noundef %38)
  store ptr %39, ptr %7, align 8, !tbaa !31
  br label %40

40:                                               ; preds = %37, %15
  call void @llvm.lifetime.end.p0(i64 8, ptr %7) #8
  ret i32 0
}