; Function Attrs: nounwind uwtable
define internal noundef i32 @H5O__copy_free_addrmap_cb(ptr noundef %0, ptr readnone captures(none) %1, ptr readnone captures(none) %2) #0 {
  %4 = load i8, ptr @H5O_init_g, align 1, !tbaa !3, !range !7, !noundef !8
  %5 = trunc nuw i8 %4 to i1
  %6 = load i8, ptr @H5_libterm_g, align 1, !range !7
  %7 = trunc nuw i8 %6 to i1
  %8 = xor i1 %7, true
  %9 = select i1 %5, i1 true, i1 %8
  br i1 %9, label %10, label %20, !prof !9

10:                                               ; preds = %3
  %11 = getelementptr inbounds nuw i8, ptr %0, i64 48
  %12 = load ptr, ptr %11, align 8, !tbaa !56
  %.not = icmp eq ptr %12, null
  br i1 %.not, label %18, label %13

13:                                               ; preds = %10
  %14 = getelementptr inbounds nuw i8, ptr %0, i64 40
  %15 = load ptr, ptr %14, align 8, !tbaa !52
  %16 = getelementptr inbounds nuw i8, ptr %15, i64 24
  %17 = load ptr, ptr %16, align 8, !tbaa !150
  tail call void %17(ptr noundef nonnull %12) #7
  br label %18

18:                                               ; preds = %13, %10
  %19 = tail call ptr @H5FL_reg_free(ptr noundef nonnull @H5_H5O_addr_map_t_reg_free_list, ptr noundef nonnull %0) #7
  br label %20

20:                                               ; preds = %18, %3
  ret i32 0
}